target datalayout = "e-m:e-p270:32:32-p271:32:32-p272:64:64-i64:64-i128:128-f80:128-n8:16:32:64-S128"
target triple = "x86_64-unknown-linux-gnu"

%"class.QuantLib::Date" = type { i64 }
%"class.QuantLib::Period" = type { i32, i32 }

; Function Attrs: mustprogress nounwind uwtable
define linkonce_odr void @_ZN8QuantLib6PeriodC2EiNS_8TimeUnitE(ptr noundef nonnull align 4 dereferenceable(8) %this, i32 noundef %n, i32 noundef %units) unnamed_addr #1 comdat align 2 {
entry:
  %this.addr = alloca ptr, align 8
  %n.addr = alloca i32, align 4
  %units.addr = alloca i32, align 4
  store ptr %this, ptr %this.addr, align 8, !tbaa !3
  store i32 %n, ptr %n.addr, align 4, !tbaa !48
  store i32 %units, ptr %units.addr, align 4, !tbaa !57
  %this1 = load ptr, ptr %this.addr, align 8
  %length_ = getelementptr inbounds nuw %"class.QuantLib::Period", ptr %this1, i32 0, i32 0
  %0 = load i32, ptr %n.addr, align 4, !tbaa !48
  store i32 %0, ptr %length_, align 4, !tbaa !59
  %units_ = getelementptr inbounds nuw %"class.QuantLib::Period", ptr %this1, i32 0, i32 1
  %1 = load i32, ptr %units.addr, align 4, !tbaa !57
  store i32 %1, ptr %units_, align 4, !tbaa !96
  ret void
}

; Function Attrs: inlinehint mustprogress nounwind uwtable
define linkonce_odr noundef i64 @_ZNK8QuantLib4Date12serialNumberEv(ptr noundef nonnull align 8 dereferenceable(8) %this) #6 comdat align 2 {
entry:
  %this.addr = alloca ptr, align 8
  store ptr %this, ptr %this.addr, align 8, !tbaa !3
  %this1 = load ptr, ptr %this.addr, align 8
  %serialNumber_ = getelementptr inbounds nuw %"class.QuantLib::Date", ptr %this1, i32 0, i32 0
  %0 = load i64, ptr %serialNumber_, align 8, !tbaa !66
  ret i64 %0
}

; Function Attrs: inlinehint mustprogress uwtable
define linkonce_odr i64 @_ZN8QuantLibmlIiEENS_6PeriodET_NS_8TimeUnitE(i32 noundef %n, i32 noundef %units) #10 comdat {
entry:
  %retval = alloca %"class.QuantLib::Period", align 4
  %n.addr = alloca i32, align 4
  %units.addr = alloca i32, align 4
  store i32 %n, ptr %n.addr, align 4, !tbaa !48
  store i32 %units, ptr %units.addr, align 4, !tbaa !57
  %0 = load i32, ptr %n.addr, align 4, !tbaa !48
  %1 = load i32, ptr %units.addr, align 4, !tbaa !57
  call void @_ZN8QuantLib6PeriodC2EiNS_8TimeUnitE(ptr noundef nonnull align 4 dereferenceable(8) %retval, i32 noundef %0, i32 noundef %1)
  %2 = load i64, ptr %retval, align 4
  ret i64 %2
}

; Function Attrs: inlinehint mustprogress nounwind uwtable
define linkonce_odr noundef zeroext i1 @_ZN8QuantLibgtERKNS_4DateES2_(ptr noundef nonnull align 8 dereferenceable(8) %d1, ptr noundef nonnull align 8 dereferenceable(8) %d2) #6 comdat {
entry:
  %d1.addr = alloca ptr, align 8
  %d2.addr = alloca ptr, align 8
  store ptr %d1, ptr %d1.addr, align 8, !tbaa !3
  store ptr %d2, ptr %d2.addr, align 8, !tbaa !3
  %0 = load ptr, ptr %d1.addr, align 8, !tbaa !3
  %call = call noundef i64 @_ZNK8QuantLib4Date12serialNumberEv(ptr noundef nonnull align 8 dereferenceable(8) %0)
  %1 = load ptr, ptr %d2.addr, align 8, !tbaa !3
  %call1 = call noundef i64 @_ZNK8QuantLib4Date12serialNumberEv(ptr noundef nonnull align 8 dereferenceable(8) %1)
  %cmp = icmp sgt i64 %call, %call1
  ret i1 %cmp
}

; Function Attrs: mustprogress uwtable
define i64 @_ZN8QuantLib17previousTwentiethERKNS_4DateENS_14DateGeneration4RuleE(ptr noundef nonnull align 8 dereferenceable(8) %d, i32 noundef %rule) #5 {
entry:
  %retval = alloca %"class.QuantLib::Date", align 8
  %d.addr = alloca ptr, align 8
  %rule.addr = alloca i32, align 4
  %ref.tmp = alloca %"class.QuantLib::Period", align 4
  %m = alloca i32, align 4
  %skip = alloca i32, align 4
  %ref.tmp15 = alloca %"class.QuantLib::Period", align 4
  store ptr %d, ptr %d.addr, align 8, !tbaa !3
  store i32 %rule, ptr %rule.addr, align 4, !tbaa !44
  %0 = load ptr, ptr %d.addr, align 8, !tbaa !3
  %call = call noundef i32 @_ZNK8QuantLib4Date5monthEv(ptr noundef nonnull align 8 dereferenceable(8) %0)
  %1 = load ptr, ptr %d.addr, align 8, !tbaa !3
  %call1 = call noundef i32 @_ZNK8QuantLib4Date4yearEv(ptr noundef nonnull align 8 dereferenceable(8) %1)
  call void @_ZN8QuantLib4DateC1EiNS_5MonthEi(ptr noundef nonnull align 8 dereferenceable(8) %retval, i32 noundef 20, i32 noundef %call, i32 noundef %call1)
  %2 = load ptr, ptr %d.addr, align 8, !tbaa !3
  %call2 = call noundef zeroext i1 @_ZN8QuantLibgtERKNS_4DateES2_(ptr noundef nonnull align 8 dereferenceable(8) %retval, ptr noundef nonnull align 8 dereferenceable(8) %2)
  br i1 %call2, label %if.then, label %if.end

if.then:                                          ; preds = %entry
  call void @llvm.lifetime.start.p0(i64 8, ptr %ref.tmp) #11
  %call3 = call i64 @_ZN8QuantLibmlIiEENS_6PeriodET_NS_8TimeUnitE(i32 noundef 1, i32 noundef 2)
  store i64 %call3, ptr %ref.tmp, align 4
  %call4 = call noundef nonnull align 8 dereferenceable(8) ptr @_ZN8QuantLib4DatemIERKNS_6PeriodE(ptr noundef nonnull align 8 dereferenceable(8) %retval, ptr noundef nonnull align 4 dereferenceable(8) %ref.tmp)
  call void @llvm.lifetime.end.p0(i64 8, ptr %ref.tmp) #11
  br label %if.end

if.end:                                           ; preds = %if.then, %entry
  %3 = load i32, ptr %rule.addr, align 4, !tbaa !44
  %cmp = icmp eq i32 %3, 6
  br i1 %cmp, label %if.then10, label %lor.lhs.false

lor.lhs.false:                                    ; preds = %if.end
  %4 = load i32, ptr %rule.addr, align 4, !tbaa !44
  %cmp5 = icmp eq i32 %4, 7
  br i1 %cmp5, label %if.then10, label %lor.lhs.false6

lor.lhs.false6:                                   ; preds = %lor.lhs.false
  %5 = load i32, ptr %rule.addr, align 4, !tbaa !44
  %cmp7 = icmp eq i32 %5, 8
  br i1 %cmp7, label %if.then10, label %lor.lhs.false8

lor.lhs.false8:                                   ; preds = %lor.lhs.false6
  %6 = load i32, ptr %rule.addr, align 4, !tbaa !44
  %cmp9 = icmp eq i32 %6, 9
  br i1 %cmp9, label %if.then10, label %if.end19

if.then10:                                        ; preds = %lor.lhs.false8, %lor.lhs.false6, %lor.lhs.false, %if.end
  call void @llvm.lifetime.start.p0(i64 4, ptr %m) #11
  %call11 = call noundef i32 @_ZNK8QuantLib4Date5monthEv(ptr noundef nonnull align 8 dereferenceable(8) %retval)
  store i32 %call11, ptr %m, align 4, !tbaa !64
  %7 = load i32, ptr %m, align 4, !tbaa !64
  %rem = srem i32 %7, 3
  %cmp12 = icmp ne i32 %rem, 0
  br i1 %cmp12, label %if.then13, label %if.end18

if.then13:                                        ; preds = %if.then10
  call void @llvm.lifetime.start.p0(i64 4, ptr %skip) #11
  %8 = load i32, ptr %m, align 4, !tbaa !64
  %rem14 = srem i32 %8, 3
  store i32 %rem14, ptr %skip, align 4, !tbaa !48
  call void @llvm.lifetime.start.p0(i64 8, ptr %ref.tmp15) #11
  %9 = load i32, ptr %skip, align 4, !tbaa !48
  %call16 = call i64 @_ZN8QuantLibmlIiEENS_6PeriodET_NS_8TimeUnitE(i32 noundef %9, i32 noundef 2)
  store i64 %call16, ptr %ref.tmp15, align 4
  %call17 = call noundef nonnull align 8 dereferenceable(8) ptr @_ZN8QuantLib4DatemIERKNS_6PeriodE(ptr noundef nonnull align 8 dereferenceable(8) %retval, ptr noundef nonnull align 4 dereferenceable(8) %ref.tmp15)
  call void @llvm.lifetime.end.p0(i64 8, ptr %ref.tmp15) #11
  call void @llvm.lifetime.end.p0(i64 4, ptr %skip) #11
  br label %if.end18

if.end18:                                         ; preds = %if.then13, %if.then10
  call void @llvm.lifetime.end.p0(i64 4, ptr %m) #11
  br label %if.end19

if.end19:                                         ; preds = %if.end18, %lor.lhs.false8
  %coerce.dive = getelementptr inbounds nuw %"class.QuantLib::Date", ptr %retval, i32 0, i32 0
  %10 = load i64, ptr %coerce.dive, align 8
  ret i64 %10
}