; Function Attrs: mustprogress uwtable
define i64 @_ZN8QuantLib17previousTwentiethERKNS_4DateENS_14DateGeneration4RuleE(ptr noundef nonnull align 8 dereferenceable(8) %d, i32 noundef %rule) local_unnamed_addr #4 {
entry:
  %retval = alloca %"class.QuantLib::Date", align 8
  %ref.tmp = alloca %"class.QuantLib::Period", align 8
  %ref.tmp15 = alloca %"class.QuantLib::Period", align 8
  %call = tail call noundef i32 @_ZNK8QuantLib4Date5monthEv(ptr noundef nonnull align 8 dereferenceable(8) %d)
  %call1 = tail call noundef i32 @_ZNK8QuantLib4Date4yearEv(ptr noundef nonnull align 8 dereferenceable(8) %d)
  call void @_ZN8QuantLib4DateC1EiNS_5MonthEi(ptr noundef nonnull align 8 dereferenceable(8) %retval, i32 noundef 20, i32 noundef %call, i32 noundef %call1)
  %0 = load i64, ptr %retval, align 8, !tbaa !69
  %1 = load i64, ptr %d, align 8, !tbaa !69
  %cmp.i = icmp sgt i64 %0, %1
  br i1 %cmp.i, label %if.then, label %if.end

if.then:                                          ; preds = %entry
  call void @llvm.lifetime.start.p0(i64 8, ptr nonnull %ref.tmp) #24
  store i64 8589934593, ptr %ref.tmp, align 8
  %call4 = call noundef nonnull align 8 dereferenceable(8) ptr @_ZN8QuantLib4DatemIERKNS_6PeriodE(ptr noundef nonnull align 8 dereferenceable(8) %retval, ptr noundef nonnull align 4 dereferenceable(8) %ref.tmp)
  call void @llvm.lifetime.end.p0(i64 8, ptr nonnull %ref.tmp) #24
  br label %if.end

if.end:                                           ; preds = %if.then, %entry
  %rule.off = add i32 %rule, -6
  %switch = icmp ult i32 %rule.off, 4
  br i1 %switch, label %if.then10, label %if.end19

if.then10:                                        ; preds = %if.end
  %call11 = call noundef i32 @_ZNK8QuantLib4Date5monthEv(ptr noundef nonnull align 8 dereferenceable(8) %retval)
  %rem = srem i32 %call11, 3
  %cmp12.not = icmp eq i32 %rem, 0
  br i1 %cmp12.not, label %if.end19, label %if.then13

if.then13:                                        ; preds = %if.then10
  call void @llvm.lifetime.start.p0(i64 8, ptr nonnull %ref.tmp15) #24
  %retval.sroa.0.0.insert.ext.i = zext i32 %rem to i64
  %retval.sroa.0.0.insert.insert.i = or disjoint i64 %retval.sroa.0.0.insert.ext.i, 8589934592
  store i64 %retval.sroa.0.0.insert.insert.i, ptr %ref.tmp15, align 8
  %call17 = call noundef nonnull align 8 dereferenceable(8) ptr @_ZN8QuantLib4DatemIERKNS_6PeriodE(ptr noundef nonnull align 8 dereferenceable(8) %retval, ptr noundef nonnull align 4 dereferenceable(8) %ref.tmp15)
  call void @llvm.lifetime.end.p0(i64 8, ptr nonnull %ref.tmp15) #24
  br label %if.end19

if.end19:                                         ; preds = %if.end, %if.then10, %if.then13
  %2 = load i64, ptr %retval, align 8
  ret i64 %2
}